target datalayout = "e-m:e-p270:32:32-p271:32:32-p272:64:64-i64:64-i128:128-f80:128-n8:16:32:64-S128"
target triple = "x86_64-pc-linux-gnu"

%struct.Proto = type { ptr, i8, i8, i8, i8, i8, i32, i32, i32, i32, i32, i32, i32, i32, i32, ptr, ptr, ptr, ptr, ptr, ptr, ptr, ptr, ptr }

; Function Attrs: nounwind uwtable
define hidden ptr @luaF_newproto(ptr noundef %0) #0 {
  %2 = alloca ptr, align 8
  %3 = alloca ptr, align 8
  %4 = alloca ptr, align 8
  store ptr %0, ptr %2, align 8, !tbaa !4
  call void @llvm.lifetime.start.p0(i64 8, ptr %3) #5
  %5 = load ptr, ptr %2, align 8, !tbaa !4
  %6 = call ptr @luaC_newobj(ptr noundef %5, i8 noundef zeroext 10, i64 noundef 128)
  store ptr %6, ptr %3, align 8, !tbaa !11
  call void @llvm.lifetime.start.p0(i64 8, ptr %4) #5
  %7 = load ptr, ptr %3, align 8, !tbaa !11
  store ptr %7, ptr %4, align 8, !tbaa !61
  %8 = load ptr, ptr %4, align 8, !tbaa !61
  %9 = getelementptr inbounds nuw %struct.Proto, ptr %8, i32 0, i32 15
  store ptr null, ptr %9, align 8, !tbaa !62
  %10 = load ptr, ptr %4, align 8, !tbaa !61
  %11 = getelementptr inbounds nuw %struct.Proto, ptr %10, i32 0, i32 7
  store i32 0, ptr %11, align 4, !tbaa !69
  %12 = load ptr, ptr %4, align 8, !tbaa !61
  %13 = getelementptr inbounds nuw %struct.Proto, ptr %12, i32 0, i32 17
  store ptr null, ptr %13, align 8, !tbaa !70
  %14 = load ptr, ptr %4, align 8, !tbaa !61
  %15 = getelementptr inbounds nuw %struct.Proto, ptr %14, i32 0, i32 10
  store i32 0, ptr %15, align 8, !tbaa !71
  %16 = load ptr, ptr %4, align 8, !tbaa !61
  %17 = getelementptr inbounds nuw %struct.Proto, ptr %16, i32 0, i32 16
  store ptr null, ptr %17, align 8, !tbaa !72
  %18 = load ptr, ptr %4, align 8, !tbaa !61
  %19 = getelementptr inbounds nuw %struct.Proto, ptr %18, i32 0, i32 8
  store i32 0, ptr %19, align 8, !tbaa !73
  %20 = load ptr, ptr %4, align 8, !tbaa !61
  %21 = getelementptr inbounds nuw %struct.Proto, ptr %20, i32 0, i32 19
  store ptr null, ptr %21, align 8, !tbaa !74
  %22 = load ptr, ptr %4, align 8, !tbaa !61
  %23 = getelementptr inbounds nuw %struct.Proto, ptr %22, i32 0, i32 9
  store i32 0, ptr %23, align 4, !tbaa !75
  %24 = load ptr, ptr %4, align 8, !tbaa !61
  %25 = getelementptr inbounds nuw %struct.Proto, ptr %24, i32 0, i32 20
  store ptr null, ptr %25, align 8, !tbaa !76
  %26 = load ptr, ptr %4, align 8, !tbaa !61
  %27 = getelementptr inbounds nuw %struct.Proto, ptr %26, i32 0, i32 12
  store i32 0, ptr %27, align 8, !tbaa !77
  %28 = load ptr, ptr %4, align 8, !tbaa !61
  %29 = getelementptr inbounds nuw %struct.Proto, ptr %28, i32 0, i32 18
  store ptr null, ptr %29, align 8, !tbaa !78
  %30 = load ptr, ptr %4, align 8, !tbaa !61
  %31 = getelementptr inbounds nuw %struct.Proto, ptr %30, i32 0, i32 6
  store i32 0, ptr %31, align 8, !tbaa !79
  %32 = load ptr, ptr %4, align 8, !tbaa !61
  %33 = getelementptr inbounds nuw %struct.Proto, ptr %32, i32 0, i32 3
  store i8 0, ptr %33, align 2, !tbaa !80
  %34 = load ptr, ptr %4, align 8, !tbaa !61
  %35 = getelementptr inbounds nuw %struct.Proto, ptr %34, i32 0, i32 4
  store i8 0, ptr %35, align 1, !tbaa !81
  %36 = load ptr, ptr %4, align 8, !tbaa !61
  %37 = getelementptr inbounds nuw %struct.Proto, ptr %36, i32 0, i32 5
  store i8 0, ptr %37, align 4, !tbaa !82
  %38 = load ptr, ptr %4, align 8, !tbaa !61
  %39 = getelementptr inbounds nuw %struct.Proto, ptr %38, i32 0, i32 21
  store ptr null, ptr %39, align 8, !tbaa !83
  %40 = load ptr, ptr %4, align 8, !tbaa !61
  %41 = getelementptr inbounds nuw %struct.Proto, ptr %40, i32 0, i32 11
  store i32 0, ptr %41, align 4, !tbaa !84
  %42 = load ptr, ptr %4, align 8, !tbaa !61
  %43 = getelementptr inbounds nuw %struct.Proto, ptr %42, i32 0, i32 13
  store i32 0, ptr %43, align 4, !tbaa !85
  %44 = load ptr, ptr %4, align 8, !tbaa !61
  %45 = getelementptr inbounds nuw %struct.Proto, ptr %44, i32 0, i32 14
  store i32 0, ptr %45, align 8, !tbaa !86
  %46 = load ptr, ptr %4, align 8, !tbaa !61
  %47 = getelementptr inbounds nuw %struct.Proto, ptr %46, i32 0, i32 22
  store ptr null, ptr %47, align 8, !tbaa !87
  %48 = load ptr, ptr %4, align 8, !tbaa !61
  call void @llvm.lifetime.end.p0(i64 8, ptr %4) #5
  call void @llvm.lifetime.end.p0(i64 8, ptr %3) #5
  ret ptr %48
}