; Function Attrs: nounwind uwtable
define hidden ptr @luaF_newproto(ptr noundef %0) local_unnamed_addr #0 {
  %2 = tail call ptr @luaC_newobj(ptr noundef %0, i8 noundef zeroext 10, i64 noundef 128) #7
  %3 = getelementptr inbounds nuw i8, ptr %2, i64 56
  %4 = getelementptr inbounds nuw i8, ptr %2, i64 16
  %5 = getelementptr inbounds nuw i8, ptr %2, i64 10
  store i8 0, ptr %5, align 2, !tbaa !44
  %6 = getelementptr inbounds nuw i8, ptr %2, i64 11
  store i8 0, ptr %6, align 1, !tbaa !53
  %7 = getelementptr inbounds nuw i8, ptr %2, i64 12
  store i8 0, ptr %7, align 4, !tbaa !54
  tail call void @llvm.memset.p0.i64(ptr noundef nonnull align 8 dereferenceable(36) %4, i8 0, i64 36, i1 false)
  tail call void @llvm.memset.p0.i64(ptr noundef nonnull align 8 dereferenceable(64) %3, i8 0, i64 64, i1 false)
  ret ptr %2
}